Certificate:
    Data:
        Version: 3 (0x2)
        Serial Number: 1 (0x1)
    Signature Algorithm: sha256WithRSAEncryption
        Issuer: C=ZA, ST=EC, L=Port Elizabeth, O=SouthPort Mansion, OU=PMSIPilot, CN=SouthPort Mansion CA/name=EasyRSA/emailAddress=cyprien.diot@nmmu.ac.za
        Validity
            Not Before: Sep  4 12:21:07 2015 GMT
            Not After : Sep  1 12:21:07 2025 GMT
        Subject: C=ZA, ST=EC, L=Port Elizabeth, O=SouthPort Mansion, OU=PMSIPilot, CN=robert/name=EasyRSA/emailAddress=cyprien.diot@nmmu.ac.za
        Subject Public Key Info:
            Public Key Algorithm: rsaEncryption
                Public-Key: (2048 bit)
                Modulus:
                    00:bb:55:44:18:68:2d:cd:55:6b:1a:df:9c:e1:b5:
                    4e:b7:38:0a:26:80:69:fe:e4:83:e5:9b:80:fe:a8:
                    4c:b2:eb:d2:20:8c:7c:f0:f5:a5:3e:0b:bf:70:75:
                    bb:04:82:1b:db:6d:dc:75:82:cc:b6:8e:80:37:d1:
                    76:4c:42:5e:b6:3d:88:17:07:d0:81:ba:17:f6:b4:
                    84:ab:be:0f:b5:6a:cb:25:58:d7:47:6b:e2:fd:0d:
                    1a:58:90:46:48:29:ab:a7:02:a6:64:49:ba:ef:16:
                    46:c6:93:13:66:57:8b:72:4d:5b:b8:7f:16:1a:4c:
                    74:96:80:4c:b4:33:52:95:96:57:dd:fa:ca:b3:60:
                    3b:d1:cf:6f:2e:20:0d:f4:66:66:54:e9:83:c6:89:
                    b8:40:56:a8:bb:17:51:bb:9a:e1:23:60:5e:4b:fb:
                    53:76:42:f0:df:99:99:9f:2a:f8:dc:e7:55:e4:14:
                    0b:85:1e:a9:cc:37:6d:b6:12:7b:dc:53:73:29:4a:
                    03:7b:57:10:b3:db:bf:b0:6e:85:fc:fc:12:06:ce:
                    77:37:c4:5d:f5:4f:7e:32:d6:c6:2c:3a:64:73:34:
                    e3:8d:fe:13:e0:87:5e:02:84:2a:e2:15:9f:f3:32:
                    9c:dd:f5:e6:23:df:f5:29:04:4c:4b:5c:99:ec:82:
                    c6:5d
                Exponent: 65537 (0x10001)
        X509v3 extensions:
            X509v3 Basic Constraints: 
                CA:FALSE
            Netscape Comment: 
                Easy-RSA Generated Certificate
            X509v3 Subject Key Identifier: 
                53:C5:A9:66:4D:BC:D4:D9:96:77:11:F6:FA:83:67:6A:8F:32:DA:5E
            X509v3 Authority Key Identifier: 
                keyid:D5:F5:B4:A1:44:5F:BD:83:B5:80:BC:AD:96:3D:FA:FE:32:1C:CA:57
                DirName:/C=ZA/ST=EC/L=Port Elizabeth/O=SouthPort Mansion/OU=PMSIPilot/CN=SouthPort Mansion CA/name=EasyRSA/emailAddress=cyprien.diot@nmmu.ac.za
                serial:80:21:94:BE:8A:B0:45:3C

            X509v3 Extended Key Usage: 
                TLS Web Client Authentication
            X509v3 Key Usage: 
                Digital Signature
            X509v3 Subject Alternative Name: 
                DNS:robert
    Signature Algorithm: sha256WithRSAEncryption
         78:fb:3b:8e:bb:85:43:bb:b2:97:cd:7a:9e:45:ee:6e:20:5c:
         b0:73:f8:76:26:af:0c:77:bd:5a:1c:35:88:f9:13:0f:b2:15:
         1b:01:91:aa:7f:2c:c3:a2:b7:e5:12:68:97:6d:57:b8:ba:bb:
         39:c0:ac:a8:3c:b1:94:d3:15:66:2c:2a:25:75:5f:8b:49:67:
         2b:72:f1:81:cc:17:2a:25:8e:33:c9:ef:a5:73:46:29:48:d1:
         1e:cb:1b:66:ec:08:f0:7c:8e:06:2d:b8:b3:5b:9b:5a:d6:c4:
         b1:4a:4d:ca:30:60:d4:7c:85:f1:aa:13:10:9c:85:d5:b7:07:
         d0:fe:64:99:5c:56:aa:ba:2d:65:66:af:83:f0:13:86:aa:6d:
         1f:9d:7b:ad:f0:ca:60:23:a5:bf:f6:99:84:36:e1:3a:6e:38:
         e5:76:dd:65:d0:29:35:82:c8:fa:a5:a3:08:30:74:08:aa:0a:
         67:80:78:f9:48:85:1a:15:e0:f3:18:7f:99:e8:ab:3e:2a:a0:
         f6:be:b1:19:5f:74:bf:bb:0f:df:20:0b:dd:36:c0:2f:4d:31:
         71:9d:ad:2f:3e:bb:fc:57:55:5d:6a:62:d5:6b:62:63:6f:33:
         62:30:9a:7f:02:8e:9e:a3:ed:bf:c0:85:8c:d0:3a:22:d5:7b:
         6e:9b:aa:37
-----BEGIN CERTIFICATE-----
MIIFbzCCBFegAwIBAgIBATANBgkqhkiG9w0BAQsFADCBvDELMAkGA1UEBhMCWkEx
CzAJBgNVBAgTAkVDMRcwFQYDVQQHEw5Qb3J0IEVsaXphYmV0aDEaMBgGA1UEChMR
U291dGhQb3J0IE1hbnNpb24xEjAQBgNVBAsTCVBNU0lQaWxvdDEdMBsGA1UEAxMU
U291dGhQb3J0IE1hbnNpb24gQ0ExEDAOBgNVBCkTB0Vhc3lSU0ExJjAkBgkqhkiG
9w0BCQEWF2N5cHJpZW4uZGlvdEBubW11LmFjLnphMB4XDTE1MDkwNDEyMjEwN1oX
DTI1MDkwMTEyMjEwN1owga4xCzAJBgNVBAYTAlpBMQswCQYDVQQIEwJFQzEXMBUG
A1UEBxMOUG9ydCBFbGl6YWJldGgxGjAYBgNVBAoTEVNvdXRoUG9ydCBNYW5zaW9u
MRIwEAYDVQQLEwlQTVNJUGlsb3QxDzANBgNVBAMTBnJvYmVydDEQMA4GA1UEKRMH
RWFzeVJTQTEmMCQGCSqGSIb3DQEJARYXY3lwcmllbi5kaW90QG5tbXUuYWMuemEw
ggEiMA0GCSqGSIb3DQEBAQUAA4IBDwAwggEKAoIBAQC7VUQYaC3NVWsa35zhtU63
OAomgGn+5IPlm4D+qEyy69IgjHzw9aU+C79wdbsEghvbbdx1gsy2joA30XZMQl62
PYgXB9CBuhf2tISrvg+1asslWNdHa+L9DRpYkEZIKaunAqZkSbrvFkbGkxNmV4ty
TVu4fxYaTHSWgEy0M1KVllfd+sqzYDvRz28uIA30ZmZU6YPGibhAVqi7F1G7muEj
YF5L+1N2QvDfmZmfKvjc51XkFAuFHqnMN222EnvcU3MpSgN7VxCz27+wboX8/BIG
znc3xF31T34y1sYsOmRzNOON/hPgh14ChCriFZ/zMpzd9eYj3/UpBExLXJnsgsZd
AgMBAAGjggGGMIIBgjAJBgNVHRMEAjAAMC0GCWCGSAGG+EIBDQQgFh5FYXN5LVJT
QSBHZW5lcmF0ZWQgQ2VydGlmaWNhdGUwHQYDVR0OBBYEFFPFqWZNvNTZlncR9vqD
Z2qPMtpeMIHxBgNVHSMEgekwgeaAFNX1tKFEX72DtYC8rZY9+v4yHMpXoYHCpIG/
MIG8MQswCQYDVQQGEwJaQTELMAkGA1UECBMCRUMxFzAVBgNVBAcTDlBvcnQgRWxp
emFiZXRoMRowGAYDVQQKExFTb3V0aFBvcnQgTWFuc2lvbjESMBAGA1UECxMJUE1T
SVBpbG90MR0wGwYDVQQDExRTb3V0aFBvcnQgTWFuc2lvbiBDQTEQMA4GA1UEKRMH
RWFzeVJTQTEmMCQGCSqGSIb3DQEJARYXY3lwcmllbi5kaW90QG5tbXUuYWMuemGC
CQCAIZS+irBFPDATBgNVHSUEDDAKBggrBgEFBQcDAjALBgNVHQ8EBAMCB4AwEQYD
VR0RBAowCIIGcm9iZXJ0MA0GCSqGSIb3DQEBCwUAA4IBAQB4+zuOu4VDu7KXzXqe
Re5uIFywc/h2Jq8Md71aHDWI+RMPshUbAZGqfyzDorflEmiXbVe4urs5wKyoPLGU
0xVmLColdV+LSWcrcvGBzBcqJY4zye+lc0YpSNEeyxtm7AjwfI4GLbizW5ta1sSx
Sk3KMGDUfIXxqhMQnIXVtwfQ/mSZXFaqui1lZq+D8BOGqm0fnXut8MpgI6W/9pmE
NuE6bjjldt1l0Ck1gsj6paMIMHQIqgpngHj5SIUaFeDzGH+Z6Ks+KqD2vrEZX3S/
uw/fIAvdNsAvTTFxna0vPrv8V1VdamLVa2JjbzNiMJp/Ao6eo+2/wIWM0Doi1Xtu
m6o3
-----END CERTIFICATE-----
