Certificate:
    Data:
        Version: 3 (0x2)
        Serial Number: 2 (0x2)
    Signature Algorithm: sha256WithRSAEncryption
        Issuer: C=ZA, ST=EC, L=Port Elizabeth, O=SouthPort Mansion, OU=PMSIPilot, CN=SouthPort Mansion CA/name=EasyRSA/emailAddress=cyprien.diot@nmmu.ac.za
        Validity
            Not Before: Sep  4 12:21:41 2015 GMT
            Not After : Sep  1 12:21:41 2025 GMT
        Subject: C=ZA, ST=EC, L=Port Elizabeth, O=SouthPort Mansion, OU=PMSIPilot, CN=mandela/name=EasyRSA/emailAddress=cyprien.diot@nmmu.ac.za
        Subject Public Key Info:
            Public Key Algorithm: rsaEncryption
                Public-Key: (2048 bit)
                Modulus:
                    00:bd:cd:2a:05:82:4a:2b:9e:4f:72:50:81:03:fe:
                    df:80:d9:3b:80:34:08:85:13:29:88:82:b9:52:ec:
                    70:12:62:6c:0e:0c:01:e5:e6:a4:a5:4b:2c:dc:7e:
                    d0:8a:de:54:37:fa:4c:06:47:0f:d3:cd:10:dd:ca:
                    af:b0:03:9b:e0:b3:06:cf:4c:89:6f:7c:3f:79:43:
                    da:a3:66:4a:58:56:a1:db:df:7d:15:d8:05:10:f7:
                    c2:19:e0:5d:08:d5:2a:13:98:2b:03:d6:ba:8d:61:
                    36:9e:f0:30:b3:bf:6e:3f:96:07:e0:40:c8:78:31:
                    52:8f:65:af:d7:d6:bd:5a:c4:cc:1a:54:53:b1:08:
                    7d:6f:b1:a8:ab:51:14:0a:c5:b5:18:06:c1:66:44:
                    69:40:6d:1a:61:a1:de:59:8d:86:6b:68:6f:65:e9:
                    93:77:a9:1b:9a:e3:ea:b5:94:69:17:ab:7c:c4:f8:
                    0d:5c:12:d0:51:4c:9d:04:ff:51:0f:83:e3:cb:72:
                    6a:13:fd:b9:c2:e5:8c:0f:21:01:4a:a5:69:c1:95:
                    cd:35:f8:e2:ab:f4:1b:27:51:0a:09:8d:8a:e5:43:
                    6f:3e:7c:e5:3f:c1:6e:a8:5b:e7:fd:ad:4c:90:3f:
                    ed:26:17:19:8d:d1:a2:09:93:af:33:ea:35:ad:a0:
                    8a:f1
                Exponent: 65537 (0x10001)
        X509v3 extensions:
            X509v3 Basic Constraints: 
                CA:FALSE
            Netscape Comment: 
                Easy-RSA Generated Certificate
            X509v3 Subject Key Identifier: 
                80:90:D6:14:31:4E:7B:1A:31:DC:E9:3D:54:12:4C:ED:13:ED:87:F1
            X509v3 Authority Key Identifier: 
                keyid:D5:F5:B4:A1:44:5F:BD:83:B5:80:BC:AD:96:3D:FA:FE:32:1C:CA:57
                DirName:/C=ZA/ST=EC/L=Port Elizabeth/O=SouthPort Mansion/OU=PMSIPilot/CN=SouthPort Mansion CA/name=EasyRSA/emailAddress=cyprien.diot@nmmu.ac.za
                serial:80:21:94:BE:8A:B0:45:3C

            X509v3 Extended Key Usage: 
                TLS Web Client Authentication
            X509v3 Key Usage: 
                Digital Signature
            X509v3 Subject Alternative Name: 
                DNS:mandela
    Signature Algorithm: sha256WithRSAEncryption
         56:c3:6c:e2:6b:d2:02:27:ca:0f:78:2f:8a:66:71:31:06:98:
         2b:81:af:9a:6a:19:61:6d:cd:a8:02:0b:75:f1:c4:7f:d0:d0:
         11:18:b3:6c:32:0a:cf:a4:06:30:47:03:7c:3d:72:49:8f:d8:
         80:33:4e:73:2c:18:98:8f:81:a8:76:50:97:78:eb:f5:f2:0e:
         81:ad:0a:49:f1:ad:6e:54:7e:13:d6:02:43:e0:2d:7d:9e:92:
         a5:80:b4:0f:8f:be:b9:a8:ee:95:6a:b1:7b:7d:92:dd:e8:3c:
         30:fc:06:67:d7:32:d2:91:31:f9:57:35:20:9c:1e:de:a0:6d:
         c6:2d:3f:70:d6:b8:5f:7f:2e:4d:af:ca:3c:31:a2:ad:05:06:
         d7:c3:8a:46:a3:38:c8:82:45:57:b1:8d:87:bb:72:a8:c7:61:
         61:4f:d6:90:dd:ff:8d:a8:df:5b:87:05:70:75:21:f2:49:b4:
         6b:af:51:cb:6d:02:70:cd:9c:eb:d8:48:aa:65:7b:a5:85:d2:
         b6:7f:f2:e1:06:46:de:4f:54:e2:e0:5c:17:0c:95:e5:7e:af:
         96:18:63:70:f2:85:45:2d:bc:c2:95:ba:80:a0:a8:a8:38:67:
         74:91:99:29:d1:81:f6:45:27:8c:10:6d:96:cf:07:ee:6b:bd:
         ba:f1:02:c9
-----BEGIN CERTIFICATE-----
MIIFcTCCBFmgAwIBAgIBAjANBgkqhkiG9w0BAQsFADCBvDELMAkGA1UEBhMCWkEx
CzAJBgNVBAgTAkVDMRcwFQYDVQQHEw5Qb3J0IEVsaXphYmV0aDEaMBgGA1UEChMR
U291dGhQb3J0IE1hbnNpb24xEjAQBgNVBAsTCVBNU0lQaWxvdDEdMBsGA1UEAxMU
U291dGhQb3J0IE1hbnNpb24gQ0ExEDAOBgNVBCkTB0Vhc3lSU0ExJjAkBgkqhkiG
9w0BCQEWF2N5cHJpZW4uZGlvdEBubW11LmFjLnphMB4XDTE1MDkwNDEyMjE0MVoX
DTI1MDkwMTEyMjE0MVowga8xCzAJBgNVBAYTAlpBMQswCQYDVQQIEwJFQzEXMBUG
A1UEBxMOUG9ydCBFbGl6YWJldGgxGjAYBgNVBAoTEVNvdXRoUG9ydCBNYW5zaW9u
MRIwEAYDVQQLEwlQTVNJUGlsb3QxEDAOBgNVBAMTB21hbmRlbGExEDAOBgNVBCkT
B0Vhc3lSU0ExJjAkBgkqhkiG9w0BCQEWF2N5cHJpZW4uZGlvdEBubW11LmFjLnph
MIIBIjANBgkqhkiG9w0BAQEFAAOCAQ8AMIIBCgKCAQEAvc0qBYJKK55PclCBA/7f
gNk7gDQIhRMpiIK5UuxwEmJsDgwB5eakpUss3H7Qit5UN/pMBkcP080Q3cqvsAOb
4LMGz0yJb3w/eUPao2ZKWFah2999FdgFEPfCGeBdCNUqE5grA9a6jWE2nvAws79u
P5YH4EDIeDFSj2Wv19a9WsTMGlRTsQh9b7Goq1EUCsW1GAbBZkRpQG0aYaHeWY2G
a2hvZemTd6kbmuPqtZRpF6t8xPgNXBLQUUydBP9RD4Pjy3JqE/25wuWMDyEBSqVp
wZXNNfjiq/QbJ1EKCY2K5UNvPnzlP8FuqFvn/a1MkD/tJhcZjdGiCZOvM+o1raCK
8QIDAQABo4IBhzCCAYMwCQYDVR0TBAIwADAtBglghkgBhvhCAQ0EIBYeRWFzeS1S
U0EgR2VuZXJhdGVkIENlcnRpZmljYXRlMB0GA1UdDgQWBBSAkNYUMU57GjHc6T1U
EkztE+2H8TCB8QYDVR0jBIHpMIHmgBTV9bShRF+9g7WAvK2WPfr+MhzKV6GBwqSB
vzCBvDELMAkGA1UEBhMCWkExCzAJBgNVBAgTAkVDMRcwFQYDVQQHEw5Qb3J0IEVs
aXphYmV0aDEaMBgGA1UEChMRU291dGhQb3J0IE1hbnNpb24xEjAQBgNVBAsTCVBN
U0lQaWxvdDEdMBsGA1UEAxMUU291dGhQb3J0IE1hbnNpb24gQ0ExEDAOBgNVBCkT
B0Vhc3lSU0ExJjAkBgkqhkiG9w0BCQEWF2N5cHJpZW4uZGlvdEBubW11LmFjLnph
ggkAgCGUvoqwRTwwEwYDVR0lBAwwCgYIKwYBBQUHAwIwCwYDVR0PBAQDAgeAMBIG
A1UdEQQLMAmCB21hbmRlbGEwDQYJKoZIhvcNAQELBQADggEBAFbDbOJr0gInyg94
L4pmcTEGmCuBr5pqGWFtzagCC3XxxH/Q0BEYs2wyCs+kBjBHA3w9ckmP2IAzTnMs
GJiPgah2UJd46/XyDoGtCknxrW5UfhPWAkPgLX2ekqWAtA+Pvrmo7pVqsXt9kt3o
PDD8BmfXMtKRMflXNSCcHt6gbcYtP3DWuF9/Lk2vyjwxoq0FBtfDikajOMiCRVex
jYe7cqjHYWFP1pDd/42o31uHBXB1IfJJtGuvUcttAnDNnOvYSKple6WF0rZ/8uEG
Rt5PVOLgXBcMleV+r5YYY3DyhUUtvMKVuoCgqKg4Z3SRmSnRgfZFJ4wQbZbPB+5r
vbrxAsk=
-----END CERTIFICATE-----
